target datalayout = "e-m:e-p270:32:32-p271:32:32-p272:64:64-i64:64-i128:128-f80:128-n8:16:32:64-S128"
target triple = "x86_64-pc-linux-gnu"

%struct.WOLFSSL_BUFFER_INFO = type { ptr, i32 }
%struct.WOLFSSL = type <{ ptr, ptr, ptr, ptr, [48 x i8], [48 x i8], ptr, ptr, ptr, ptr, ptr, ptr, ptr, ptr, ptr, ptr, ptr, ptr, ptr, i32, [4 x i8], %struct.WOLFSSL_CIPHER, ptr, %struct.Ciphers, %struct.Ciphers, [8 x i8], %struct.Buffers, ptr, ptr, %struct.WOLFSSL_ALERT_HISTORY, %struct.WOLFSSL_ALERT, i32, i32, i32, i32, i32, i32, i32, i16, [2 x i8], i32, i8, %struct.RecordLayerHeader, %struct.MsgsReceived, %struct.ProtocolVersion, %struct.ProtocolVersion, %struct.CipherSpecs, [2 x i8], %struct.Keys, %struct.Options, ptr, i8, i8, i16, [10 x i16], i8, i8, i16, i16, [38 x i8], i32, i32, [4 x i8], ptr, i8, i8, [6 x i8], ptr, ptr, i16, i8, i8, i32, i8, [3 x i8], i32, %struct.OneTimeAuth, ptr }>
%struct.WOLFSSL_CIPHER = type { i8, i8, ptr }
%struct.Ciphers = type { ptr, ptr, ptr, ptr, i8, i8 }
%struct.Buffers = type { %struct.bufferStatic, %struct.bufferStatic, %struct.WOLFSSL_BUFFER_INFO, %struct.WOLFSSL_BUFFER_INFO, %struct.WOLFSSL_BUFFER_INFO, %struct.WOLFSSL_BUFFER_INFO, i32, i32, i8, i8, i8, i8, %struct.WOLFSSL_BUFFER_INFO, %struct.WOLFSSL_BUFFER_INFO, %struct.WOLFSSL_BUFFER_INFO, %struct.WOLFSSL_BUFFER_INFO, ptr, ptr, ptr, i8, i8, i32, i32, ptr, i32, [1 x ptr] }
%struct.bufferStatic = type { [5 x i8], ptr, i32, i32, i32, i8, i8 }
%struct.WOLFSSL_ALERT_HISTORY = type { %struct.WOLFSSL_ALERT, %struct.WOLFSSL_ALERT }
%struct.WOLFSSL_ALERT = type { i32, i32 }
%struct.RecordLayerHeader = type { i8, i8, i8, [2 x i8] }
%struct.MsgsReceived = type { i32 }
%struct.ProtocolVersion = type { i8, i8 }
%struct.CipherSpecs = type { i16, i16, i16, i16, i8, i8, i8, i8, i8, i8, i8, i8 }
%struct.Keys = type { [64 x i8], [64 x i8], [32 x i8], [32 x i8], [16 x i8], [16 x i8], [8 x i8], [12 x i8], [12 x i8], i32, i32, i32, i32, i32, i32, i8, i8, i8, i8 }
%struct.Options = type { i64, i64, i8, i8, i8, i8, i8, i8, i8, i8, i8, i8, i8, i8, i8, i8, i8, i8, i8, i8, i8, i8, i8, i16, i16, i16, i16, i16, i8 }
%struct.OneTimeAuth = type { ptr, i8 }

; Function Attrs: nounwind uwtable
define i32 @wolfSSL_inject(ptr noundef %0, ptr noundef %1, i32 noundef %2) #0 {
  %4 = alloca i32, align 4
  %5 = alloca ptr, align 8
  %6 = alloca ptr, align 8
  %7 = alloca i32, align 4
  %8 = alloca i32, align 4
  %9 = alloca i32, align 4
  %10 = alloca i32, align 4
  %11 = alloca i32, align 4
  store ptr %0, ptr %5, align 8, !tbaa !61
  store ptr %1, ptr %6, align 8, !tbaa !3
  store i32 %2, ptr %7, align 4, !tbaa !7
  call void @llvm.lifetime.start.p0(i64 4, ptr %8) #9
  call void @llvm.lifetime.start.p0(i64 4, ptr %9) #9
  br label %12

12:                                               ; preds = %3
  br label %13

13:                                               ; preds = %12
  br label %14

14:                                               ; preds = %13
  %15 = load ptr, ptr %5, align 8, !tbaa !61
  %16 = icmp eq ptr %15, null
  br i1 %16, label %23, label %17

17:                                               ; preds = %14
  %18 = load ptr, ptr %6, align 8, !tbaa !3
  %19 = icmp eq ptr %18, null
  br i1 %19, label %23, label %20

20:                                               ; preds = %17
  %21 = load i32, ptr %7, align 4, !tbaa !7
  %22 = icmp sle i32 %21, 0
  br i1 %22, label %23, label %24

23:                                               ; preds = %20, %17, %14
  store i32 -173, ptr %4, align 4
  store i32 1, ptr %10, align 4
  br label %93

24:                                               ; preds = %20
  %25 = load ptr, ptr %5, align 8, !tbaa !61
  %26 = getelementptr inbounds nuw %struct.WOLFSSL, ptr %25, i32 0, i32 26
  %27 = getelementptr inbounds nuw %struct.Buffers, ptr %26, i32 0, i32 0
  %28 = getelementptr inbounds nuw %struct.bufferStatic, ptr %27, i32 0, i32 2
  %29 = load i32, ptr %28, align 16, !tbaa !179
  %30 = load ptr, ptr %5, align 8, !tbaa !61
  %31 = getelementptr inbounds nuw %struct.WOLFSSL, ptr %30, i32 0, i32 26
  %32 = getelementptr inbounds nuw %struct.Buffers, ptr %31, i32 0, i32 0
  %33 = getelementptr inbounds nuw %struct.bufferStatic, ptr %32, i32 0, i32 3
  %34 = load i32, ptr %33, align 4, !tbaa !180
  %35 = sub i32 %29, %34
  store i32 %35, ptr %9, align 4, !tbaa !7
  %36 = load ptr, ptr %5, align 8, !tbaa !61
  %37 = getelementptr inbounds nuw %struct.WOLFSSL, ptr %36, i32 0, i32 26
  %38 = getelementptr inbounds nuw %struct.Buffers, ptr %37, i32 0, i32 0
  %39 = getelementptr inbounds nuw %struct.bufferStatic, ptr %38, i32 0, i32 4
  %40 = load i32, ptr %39, align 8, !tbaa !181
  %41 = load i32, ptr %9, align 4, !tbaa !7
  %42 = sub i32 %40, %41
  store i32 %42, ptr %8, align 4, !tbaa !7
  %43 = load i32, ptr %7, align 4, !tbaa !7
  %44 = load i32, ptr %8, align 4, !tbaa !7
  %45 = icmp sgt i32 %43, %44
  br i1 %45, label %46, label %70

46:                                               ; preds = %24
  call void @llvm.lifetime.start.p0(i64 4, ptr %11) #9
  %47 = load ptr, ptr %5, align 8, !tbaa !61
  %48 = getelementptr inbounds nuw %struct.WOLFSSL, ptr %47, i32 0, i32 26
  %49 = getelementptr inbounds nuw %struct.Buffers, ptr %48, i32 0, i32 3
  %50 = getelementptr inbounds nuw %struct.WOLFSSL_BUFFER_INFO, ptr %49, i32 0, i32 1
  %51 = load i32, ptr %50, align 8, !tbaa !182
  %52 = icmp ugt i32 %51, 0
  br i1 %52, label %53, label %57

53:                                               ; preds = %46
  br label %54

54:                                               ; preds = %53
  br label %55

55:                                               ; preds = %54
  br label %56

56:                                               ; preds = %55
  store i32 -441, ptr %4, align 4
  store i32 1, ptr %10, align 4
  br label %67

57:                                               ; preds = %46
  %58 = load ptr, ptr %5, align 8, !tbaa !61
  %59 = load i32, ptr %7, align 4, !tbaa !7
  %60 = load i32, ptr %9, align 4, !tbaa !7
  %61 = call i32 @GrowInputBuffer(ptr noundef %58, i32 noundef %59, i32 noundef %60)
  store i32 %61, ptr %11, align 4, !tbaa !7
  %62 = load i32, ptr %11, align 4, !tbaa !7
  %63 = icmp slt i32 %62, 0
  br i1 %63, label %64, label %66

64:                                               ; preds = %57
  %65 = load i32, ptr %11, align 4, !tbaa !7
  store i32 %65, ptr %4, align 4
  store i32 1, ptr %10, align 4
  br label %67

66:                                               ; preds = %57
  store i32 0, ptr %10, align 4
  br label %67

67:                                               ; preds = %66, %64, %56
  call void @llvm.lifetime.end.p0(i64 4, ptr %11) #9
  %68 = load i32, ptr %10, align 4
  switch i32 %68, label %93 [
    i32 0, label %69
  ]

69:                                               ; preds = %67
  br label %70

70:                                               ; preds = %69, %24
  %71 = load ptr, ptr %5, align 8, !tbaa !61
  %72 = getelementptr inbounds nuw %struct.WOLFSSL, ptr %71, i32 0, i32 26
  %73 = getelementptr inbounds nuw %struct.Buffers, ptr %72, i32 0, i32 0
  %74 = getelementptr inbounds nuw %struct.bufferStatic, ptr %73, i32 0, i32 1
  %75 = load ptr, ptr %74, align 8, !tbaa !183
  %76 = load ptr, ptr %5, align 8, !tbaa !61
  %77 = getelementptr inbounds nuw %struct.WOLFSSL, ptr %76, i32 0, i32 26
  %78 = getelementptr inbounds nuw %struct.Buffers, ptr %77, i32 0, i32 0
  %79 = getelementptr inbounds nuw %struct.bufferStatic, ptr %78, i32 0, i32 3
  %80 = load i32, ptr %79, align 4, !tbaa !180
  %81 = zext i32 %80 to i64
  %82 = getelementptr inbounds nuw i8, ptr %75, i64 %81
  %83 = load ptr, ptr %6, align 8, !tbaa !3
  %84 = load i32, ptr %7, align 4, !tbaa !7
  %85 = sext i32 %84 to i64
  call void @llvm.memcpy.p0.p0.i64(ptr align 1 %82, ptr align 1 %83, i64 %85, i1 false)
  %86 = load i32, ptr %7, align 4, !tbaa !7
  %87 = load ptr, ptr %5, align 8, !tbaa !61
  %88 = getelementptr inbounds nuw %struct.WOLFSSL, ptr %87, i32 0, i32 26
  %89 = getelementptr inbounds nuw %struct.Buffers, ptr %88, i32 0, i32 0
  %90 = getelementptr inbounds nuw %struct.bufferStatic, ptr %89, i32 0, i32 2
  %91 = load i32, ptr %90, align 16, !tbaa !179
  %92 = add i32 %91, %86
  store i32 %92, ptr %90, align 16, !tbaa !179
  store i32 1, ptr %4, align 4
  store i32 1, ptr %10, align 4
  br label %93

93:                                               ; preds = %70, %67, %23
  call void @llvm.lifetime.end.p0(i64 4, ptr %9) #9
  call void @llvm.lifetime.end.p0(i64 4, ptr %8) #9
  %94 = load i32, ptr %4, align 4
  ret i32 %94
}