; Function Attrs: nounwind uwtable
define range(i32 -2147483648, 2) i32 @wolfSSL_inject(ptr noundef %0, ptr noundef readonly captures(address_is_null) %1, i32 noundef %2) local_unnamed_addr #0 {
  %4 = icmp eq ptr %0, null
  %5 = icmp eq ptr %1, null
  %or.cond = or i1 %4, %5
  %6 = icmp slt i32 %2, 1
  %or.cond3 = or i1 %or.cond, %6
  br i1 %or.cond3, label %.thread, label %7

7:                                                ; preds = %3
  %8 = getelementptr inbounds nuw i8, ptr %0, i64 368
  %9 = load i32, ptr %8, align 16, !tbaa !157
  %10 = getelementptr inbounds nuw i8, ptr %0, i64 372
  %11 = load i32, ptr %10, align 4, !tbaa !158
  %12 = sub i32 %9, %11
  %13 = getelementptr inbounds nuw i8, ptr %0, i64 376
  %14 = load i32, ptr %13, align 8, !tbaa !159
  %15 = sub i32 %14, %12
  %16 = icmp sgt i32 %2, %15
  br i1 %16, label %17, label %23

17:                                               ; preds = %7
  %18 = getelementptr inbounds nuw i8, ptr %0, i64 440
  %19 = load i32, ptr %18, align 8, !tbaa !160
  %.not = icmp eq i32 %19, 0
  br i1 %.not, label %20, label %.thread

20:                                               ; preds = %17
  %21 = tail call i32 @GrowInputBuffer(ptr noundef nonnull %0, i32 noundef %2, i32 noundef %12) #22
  %22 = icmp sgt i32 %21, -1
  br i1 %22, label %._crit_edge, label %.thread

._crit_edge:                                      ; preds = %20
  %.pre = load i32, ptr %10, align 4, !tbaa !158
  br label %23

23:                                               ; preds = %._crit_edge, %7
  %24 = phi i32 [ %.pre, %._crit_edge ], [ %11, %7 ]
  %25 = getelementptr inbounds nuw i8, ptr %0, i64 360
  %26 = load ptr, ptr %25, align 8, !tbaa !161
  %27 = zext i32 %24 to i64
  %28 = getelementptr inbounds nuw i8, ptr %26, i64 %27
  %29 = zext nneg i32 %2 to i64
  tail call void @llvm.memcpy.p0.p0.i64(ptr align 1 %28, ptr nonnull align 1 %1, i64 %29, i1 false)
  %30 = load i32, ptr %8, align 16, !tbaa !157
  %31 = add i32 %30, %2
  store i32 %31, ptr %8, align 16, !tbaa !157
  br label %.thread

.thread:                                          ; preds = %17, %3, %20, %23
  %.0 = phi i32 [ 1, %23 ], [ %21, %20 ], [ -173, %3 ], [ -441, %17 ]
  ret i32 %.0
}